---
triple:          'x86_64-apple-darwin'
binary-path:     maze.out
relocations:
  - { offset: 0x6D5B, size: 0x8, addend: 0x0, symName: __ZNSt3__124__put_character_sequenceB8ne180100IcNS_11char_traitsIcEEEERNS_13basic_ostreamIT_T0_EES7_PKS4_m, symObjAddr: 0x1FF0, symBinAddr: 0x100005E90, symSize: 0x150 }
  - { offset: 0x8E2D, size: 0x8, addend: 0x0, symName: __ZNSt3__120__throw_length_errorB8ne180100EPKc, symObjAddr: 0x1D50, symBinAddr: 0x100005BF0, symSize: 0x50 }
  - { offset: 0x9317, size: 0x8, addend: 0x0, symName: __ZNSt3__116__pad_and_outputB8ne180100IcNS_11char_traitsIcEEEENS_19ostreambuf_iteratorIT_T0_EES6_PKS4_S8_S8_RNS_8ios_baseES4_, symObjAddr: 0x2140, symBinAddr: 0x100005FE0, symSize: 0x160 }
  - { offset: 0xA9F2, size: 0x8, addend: 0x0, symName: __ZSt28__throw_bad_array_new_lengthB8ne180100v, symObjAddr: 0x1DD0, symBinAddr: 0x100005C70, symSize: 0x40 }
  - { offset: 0xAD90, size: 0x8, addend: 0x0, symName: __ZNSt3__124uniform_int_distributionIiEclINS_23mersenne_twister_engineIjLm32ELm624ELm397ELm31ELj2567483615ELm11ELj4294967295ELm7ELj2636928640ELm15ELj4022730752ELm18ELj1812433253EEEEEiRT_RKNS1_10param_typeE, symObjAddr: 0x1B20, symBinAddr: 0x1000059C0, symSize: 0x210 }
  - { offset: 0xAE31, size: 0x8, addend: 0x0, symName: __ZNSt3__124uniform_int_distributionIiEclINS_23mersenne_twister_engineIjLm32ELm624ELm397ELm31ELj2567483615ELm11ELj4294967295ELm7ELj2636928640ELm15ELj4022730752ELm18ELj1812433253EEEEEiRT_RKNS1_10param_typeE, symObjAddr: 0x1B20, symBinAddr: 0x1000059C0, symSize: 0x210 }
  - { offset: 0xB691, size: 0x8, addend: 0x0, symName: __Z9vertex_noii, symObjAddr: 0x0, symBinAddr: 0x100003EA0, symSize: 0x10 }
  - { offset: 0xB878, size: 0x8, addend: 0x0, symName: __Z13getRandomEdgeii, symObjAddr: 0x10, symBinAddr: 0x100003EB0, symSize: 0xE0 }
  - { offset: 0xBF06, size: 0x8, addend: 0x0, symName: __Z13convert2dmazeNSt3__16vectorINS_4pairIiiEENS_9allocatorIS2_EEEEi, symObjAddr: 0xF0, symBinAddr: 0x100003F90, symSize: 0x2A0 }
  - { offset: 0xC55F, size: 0x8, addend: 0x0, symName: __ZNSt3__16vectorINS0_IcNS_9allocatorIcEEEENS1_IS3_EEEC2EmRKS3_, symObjAddr: 0x1E10, symBinAddr: 0x100005CB0, symSize: 0x150 }
  - { offset: 0xCC52, size: 0x8, addend: 0x0, symName: __ZNKSt3__16vectorIcNS_9allocatorIcEEE20__throw_length_errorB8ne180100Ev, symObjAddr: 0x1D30, symBinAddr: 0x100005BD0, symSize: 0x10 }
  - { offset: 0xCC7C, size: 0x8, addend: 0x0, symName: ___clang_call_terminate, symObjAddr: 0x1D40, symBinAddr: 0x100005BE0, symSize: 0x10 }
  - { offset: 0xCDAA, size: 0x8, addend: 0x0, symName: __ZNSt3__16vectorINS0_IcNS_9allocatorIcEEEENS1_IS3_EEED1B8ne180100Ev, symObjAddr: 0x390, symBinAddr: 0x100004230, symSize: 0x70 }
  - { offset: 0xD049, size: 0x8, addend: 0x0, symName: __Z13print_1d_mazeNSt3__16vectorINS_4pairIiiEENS_9allocatorIS2_EEEEi, symObjAddr: 0x400, symBinAddr: 0x1000042A0, symSize: 0x2F0 }
  - { offset: 0xD87C, size: 0x8, addend: 0x0, symName: __Z11print2dmazeNSt3__16vectorINS0_IcNS_9allocatorIcEEEENS1_IS3_EEEE, symObjAddr: 0x6F0, symBinAddr: 0x100004590, symSize: 0xD0 }
  - { offset: 0xDB15, size: 0x8, addend: 0x0, symName: __Z22maze_gen_kruskal_slaveii, symObjAddr: 0x7C0, symBinAddr: 0x100004660, symSize: 0x80 }
  - { offset: 0xE7D5, size: 0x8, addend: 0x0, symName: __Z23maze_gen_kruskal_masteriiRNSt3__16vectorINS0_IcNS_9allocatorIcEEEENS1_IS3_EEEE, symObjAddr: 0x840, symBinAddr: 0x1000046E0, symSize: 0x930 }
  - { offset: 0x10933, size: 0x8, addend: 0x0, symName: __ZNKSt3__16vectorINS_4pairIiiEENS_9allocatorIS2_EEE20__throw_length_errorB8ne180100Ev, symObjAddr: 0x22A0, symBinAddr: 0x100006140, symSize: 0x10 }
  - { offset: 0x1095D, size: 0x8, addend: 0x0, symName: GCC_except_table2, symObjAddr: 0x22B0, symBinAddr: 0x10000B85C, symSize: 0x0 }
  - { offset: 0x10968, size: 0x8, addend: 0x0, symName: __Z18maze_gen_bfs_slaveii, symObjAddr: 0x1170, symBinAddr: 0x100005010, symSize: 0x80 }
  - { offset: 0x10CDC, size: 0x8, addend: 0x0, symName: __Z19maze_gen_bfs_masteriiRNSt3__16vectorINS0_IcNS_9allocatorIcEEEENS1_IS3_EEEE, symObjAddr: 0x11F0, symBinAddr: 0x100005090, symSize: 0x930 }
  - { offset: 0x12FF8, size: 0x8, addend: 0x0, symName: __ZNSt12length_errorC1B8ne180100EPKc, symObjAddr: 0x1DA0, symBinAddr: 0x100005C40, symSize: 0x30 }
  - { offset: 0x13407, size: 0x8, addend: 0x0, symName: __ZNKSt3__16vectorINS0_IcNS_9allocatorIcEEEENS1_IS3_EEE20__throw_length_errorB8ne180100Ev, symObjAddr: 0x1FE0, symBinAddr: 0x100005E80, symSize: 0x10 }
  - { offset: 0x13431, size: 0x8, addend: 0x0, symName: __ZNSt3__124__put_character_sequenceB8ne180100IcNS_11char_traitsIcEEEERNS_13basic_ostreamIT_T0_EES7_PKS4_m, symObjAddr: 0x1FF0, symBinAddr: 0x100005E90, symSize: 0x150 }
  - { offset: 0x1343C, size: 0x8, addend: 0x0, symName: __ZNSt3__128__exception_guard_exceptionsINS_6vectorINS1_IcNS_9allocatorIcEEEENS2_IS4_EEE16__destroy_vectorEED1B8ne180100Ev, symObjAddr: 0x1F60, symBinAddr: 0x100005E00, symSize: 0x80 }
  - { offset: 0x1DF65, size: 0x8, addend: 0x0, symName: __ZNSt3__124uniform_int_distributionIlEclINS_23mersenne_twister_engineIjLm32ELm624ELm397ELm31ELj2567483615ELm11ELj4294967295ELm7ELj2636928640ELm15ELj4022730752ELm18ELj1812433253EEEEElRT_RKNS1_10param_typeE, symObjAddr: 0x1300, symBinAddr: 0x100007370, symSize: 0x200 }
  - { offset: 0x1E007, size: 0x8, addend: 0x0, symName: __ZNSt3__124uniform_int_distributionIlEclINS_23mersenne_twister_engineIjLm32ELm624ELm397ELm31ELj2567483615ELm11ELj4294967295ELm7ELj2636928640ELm15ELj4022730752ELm18ELj1812433253EEEEElRT_RKNS1_10param_typeE, symObjAddr: 0x1300, symBinAddr: 0x100007370, symSize: 0x200 }
  - { offset: 0x1E25D, size: 0x8, addend: 0x0, symName: __Z17vertex_no_kruskalii, symObjAddr: 0x0, symBinAddr: 0x100006150, symSize: 0x10 }
  - { offset: 0x1EFF5, size: 0x8, addend: 0x0, symName: __Z8kruskalsii, symObjAddr: 0x10, symBinAddr: 0x100006160, symSize: 0xB80 }
  - { offset: 0x211D5, size: 0x8, addend: 0x0, symName: __ZN3DSUC2Ei, symObjAddr: 0xCD0, symBinAddr: 0x100006D50, symSize: 0x140 }
  - { offset: 0x215C5, size: 0x8, addend: 0x0, symName: __ZN3DSU4findEi, symObjAddr: 0xB90, symBinAddr: 0x100006CE0, symSize: 0x30 }
  - { offset: 0x21667, size: 0x8, addend: 0x0, symName: __ZNSt3__124uniform_int_distributionIlEclINS_23mersenne_twister_engineIjLm32ELm624ELm397ELm31ELj2567483615ELm11ELj4294967295ELm7ELj2636928640ELm15ELj4022730752ELm18ELj1812433253EEEEElRT_RKNS1_10param_typeE, symObjAddr: 0x1300, symBinAddr: 0x100007370, symSize: 0x200 }
  - { offset: 0x21672, size: 0x8, addend: 0x0, symName: __ZN3DSUD1Ev, symObjAddr: 0xBC0, symBinAddr: 0x100006D10, symSize: 0x40 }
  - { offset: 0x21A65, size: 0x8, addend: 0x0, symName: __ZNSt3__16vectorIiNS_9allocatorIiEEE8__appendEm, symObjAddr: 0xE10, symBinAddr: 0x100006E90, symSize: 0x200 }
  - { offset: 0x21FD3, size: 0x8, addend: 0x0, symName: __ZNSt3__16vectorIiNS_9allocatorIiEEE8__appendEmRKi, symObjAddr: 0x1020, symBinAddr: 0x1000070A0, symSize: 0x2D0 }
  - { offset: 0x228AB, size: 0x8, addend: 0x0, symName: __ZNKSt3__16vectorIiNS_9allocatorIiEEE20__throw_length_errorB8ne180100Ev, symObjAddr: 0x1010, symBinAddr: 0x100007090, symSize: 0x10 }
  - { offset: 0x228D5, size: 0x8, addend: 0x0, symName: __ZNSt3__16vectorIiNS_9allocatorIiEEE8__appendEmRKi, symObjAddr: 0x1020, symBinAddr: 0x1000070A0, symSize: 0x2D0 }
  - { offset: 0x22AEF, size: 0x8, addend: 0x0, symName: __ZNSt3__125__independent_bits_engineINS_23mersenne_twister_engineIjLm32ELm624ELm397ELm31ELj2567483615ELm11ELj4294967295ELm7ELj2636928640ELm15ELj4022730752ELm18ELj1812433253EEEmE6__evalENS_17integral_constantIbLb1EEE, symObjAddr: 0x1500, symBinAddr: 0x100007570, symSize: 0x250 }
  - { offset: 0x2FB10, size: 0x8, addend: 0x0, symName: __ZNSt3__127__tree_balance_after_insertB8ne180100IPNS_16__tree_node_baseIPvEEEEvT_S5_, symObjAddr: 0x3040, symBinAddr: 0x10000A520, symSize: 0x180 }
  - { offset: 0x32864, size: 0x8, addend: 0x0, symName: __Z13vertex_no_bfsii, symObjAddr: 0x0, symBinAddr: 0x1000077C0, symSize: 0x10 }
  - { offset: 0x34877, size: 0x8, addend: 0x0, symName: __Z3bfsii, symObjAddr: 0x10, symBinAddr: 0x1000077D0, symSize: 0x2280 }
  - { offset: 0x3C6FE, size: 0x8, addend: 0x0, symName: __ZNSt3__15dequeIiNS_9allocatorIiEEE19__add_back_capacityEv, symObjAddr: 0x25B0, symBinAddr: 0x100009A90, symSize: 0x540 }
  - { offset: 0x3D7F1, size: 0x8, addend: 0x0, symName: __ZNSt3__16__treeINS_12__value_typeIiiEENS_19__map_value_compareIiS2_NS_4lessIiEELb1EEENS_9allocatorIS2_EEE7destroyEPNS_11__tree_nodeIS2_PvEE, symObjAddr: 0x2360, symBinAddr: 0x100009A50, symSize: 0x40 }
  - { offset: 0x3E27D, size: 0x8, addend: 0x0, symName: __ZNSt3__114__split_bufferIPiNS_9allocatorIS1_EEE9push_backEOS1_, symObjAddr: 0x2AF0, symBinAddr: 0x100009FD0, symSize: 0x1D0 }
  - { offset: 0x3E727, size: 0x8, addend: 0x0, symName: __ZNSt3__114__split_bufferIPiNS_9allocatorIS1_EEE10push_frontEOS1_, symObjAddr: 0x2CC0, symBinAddr: 0x10000A1A0, symSize: 0x1C0 }
  - { offset: 0x3EB9B, size: 0x8, addend: 0x0, symName: __ZNSt3__114__split_bufferIPiRNS_9allocatorIS1_EEE10push_frontERKS1_, symObjAddr: 0x2E80, symBinAddr: 0x10000A360, symSize: 0x1C0 }
  - { offset: 0x414E9, size: 0x8, addend: 0x0, symName: __Z13recursive_dfsRNSt3__16vectorINS0_IcNS_9allocatorIcEEEENS1_IS3_EEEERNS0_INS0_IiNS1_IiEEEENS1_IS8_EEEEiii, symObjAddr: 0x0, symBinAddr: 0x10000A6A0, symSize: 0x100 }
  - { offset: 0x41503, size: 0x8, addend: 0x0, symName: _dest_row, symObjAddr: 0x2A038, symBinAddr: 0x100010000, symSize: 0x0 }
  - { offset: 0x41520, size: 0x8, addend: 0x0, symName: _dest_col, symObjAddr: 0x2A03C, symBinAddr: 0x100010004, symSize: 0x0 }
  - { offset: 0x465E1, size: 0x8, addend: 0x0, symName: __Z13recursive_dfsRNSt3__16vectorINS0_IcNS_9allocatorIcEEEENS1_IS3_EEEERNS0_INS0_IiNS1_IiEEEENS1_IS8_EEEEiii, symObjAddr: 0x0, symBinAddr: 0x10000A6A0, symSize: 0x100 }
  - { offset: 0x46EC6, size: 0x8, addend: 0x0, symName: __Z3dfsRNSt3__16vectorINS0_IcNS_9allocatorIcEEEENS1_IS3_EEEEii, symObjAddr: 0x100, symBinAddr: 0x10000A7A0, symSize: 0x340 }
  - { offset: 0x480B3, size: 0x8, addend: 0x0, symName: __ZNSt3__16vectorINS0_IiNS_9allocatorIiEEEENS1_IS3_EEEC2EmRKS3_, symObjAddr: 0x730, symBinAddr: 0x10000AAE0, symSize: 0x150 }
  - { offset: 0x49012, size: 0x8, addend: 0x0, symName: __ZNSt3__16vectorINS0_IiNS_9allocatorIiEEEENS1_IS3_EEEC2EmRKS3_, symObjAddr: 0x730, symBinAddr: 0x10000AAE0, symSize: 0x150 }
  - { offset: 0x4938F, size: 0x8, addend: 0x0, symName: __ZNKSt3__16vectorINS0_IiNS_9allocatorIiEEEENS1_IS3_EEE20__throw_length_errorB8ne180100Ev, symObjAddr: 0x900, symBinAddr: 0x10000ACB0, symSize: 0x10 }
  - { offset: 0x493B9, size: 0x8, addend: 0x0, symName: GCC_except_table1, symObjAddr: 0x910, symBinAddr: 0x10000BC64, symSize: 0x0 }
  - { offset: 0x493C4, size: 0x8, addend: 0x0, symName: __ZNSt3__128__exception_guard_exceptionsINS_6vectorINS1_IiNS_9allocatorIiEEEENS2_IS4_EEE16__destroy_vectorEED1B8ne180100Ev, symObjAddr: 0x880, symBinAddr: 0x10000AC30, symSize: 0x80 }
  - { offset: 0x513CC, size: 0x8, addend: 0x0, symName: __ZNSt3__135__uninitialized_allocator_copy_implB8ne180100INS_9allocatorINS_6vectorIcNS1_IcEEEEEEPS4_S6_S6_EET2_RT_T0_T1_S7_, symObjAddr: 0xB40, symBinAddr: 0x10000B510, symSize: 0x100 }
  - { offset: 0x5350C, size: 0x8, addend: 0x0, symName: _main, symObjAddr: 0x0, symBinAddr: 0x10000ACC0, symSize: 0x5D0 }
  - { offset: 0x55200, size: 0x8, addend: 0x0, symName: __ZNSt3__16vectorINS0_IcNS_9allocatorIcEEEENS1_IS3_EEE18__assign_with_sizeB8ne180100IPS3_S7_EEvT_T0_l, symObjAddr: 0x8C0, symBinAddr: 0x10000B290, symSize: 0x280 }
  - { offset: 0x563A8, size: 0x8, addend: 0x0, symName: __ZNSt3__16vectorINS0_IcNS_9allocatorIcEEEENS1_IS3_EEE18__assign_with_sizeB8ne180100IPS3_S7_EEvT_T0_l, symObjAddr: 0x8C0, symBinAddr: 0x10000B290, symSize: 0x280 }
  - { offset: 0x56770, size: 0x8, addend: 0x0, symName: __ZNSt3__16vectorIcNS_9allocatorIcEEE18__assign_with_sizeB8ne180100IPcS5_EEvT_T0_l, symObjAddr: 0xC90, symBinAddr: 0x10000B660, symSize: 0x110 }
  - { offset: 0x57228, size: 0x8, addend: 0x0, symName: __ZNSt3__128__exception_guard_exceptionsINS_29_AllocatorDestroyRangeReverseINS_9allocatorINS_6vectorIcNS2_IcEEEEEEPS5_EEED1B8ne180100Ev, symObjAddr: 0xC40, symBinAddr: 0x10000B610, symSize: 0x50 }
...
